target datalayout = "e-m:e-p270:32:32-p271:32:32-p272:64:64-i64:64-i128:128-f80:128-n8:16:32:64-S128"
target triple = "x86_64-pc-linux-gnu"

%struct.AVProbeData = type { ptr, ptr, i32, ptr }

; Function Attrs: alwaysinline nounwind willreturn memory(none) uwtable
define internal i32 @av_bswap32(i32 noundef %0) #2 {
  %2 = alloca i32, align 4
  store i32 %0, ptr %2, align 4, !tbaa !18
  %3 = load i32, ptr %2, align 4, !tbaa !18
  %4 = shl i32 %3, 8
  %5 = and i32 %4, 65280
  %6 = load i32, ptr %2, align 4, !tbaa !18
  %7 = lshr i32 %6, 8
  %8 = and i32 %7, 255
  %9 = or i32 %5, %8
  %10 = shl i32 %9, 16
  %11 = load i32, ptr %2, align 4, !tbaa !18
  %12 = lshr i32 %11, 16
  %13 = shl i32 %12, 8
  %14 = and i32 %13, 65280
  %15 = load i32, ptr %2, align 4, !tbaa !18
  %16 = lshr i32 %15, 16
  %17 = lshr i32 %16, 8
  %18 = and i32 %17, 255
  %19 = or i32 %14, %18
  %20 = or i32 %10, %19
  ret i32 %20
}

; Function Attrs: nounwind uwtable
define internal i32 @aiff_probe(ptr noundef %0) #0 {
  %2 = alloca i32, align 4
  %3 = alloca ptr, align 8
  store ptr %0, ptr %3, align 8, !tbaa !4
  %4 = load ptr, ptr %3, align 8, !tbaa !4
  %5 = getelementptr inbounds nuw %struct.AVProbeData, ptr %4, i32 0, i32 1
  %6 = load ptr, ptr %5, align 8, !tbaa !9
  %7 = load i32, ptr %6, align 1, !tbaa !13
  %8 = icmp eq i32 %7, 1297239878
  br i1 %8, label %9, label %58

9:                                                ; preds = %1
  %10 = load ptr, ptr %3, align 8, !tbaa !4
  %11 = getelementptr inbounds nuw %struct.AVProbeData, ptr %10, i32 0, i32 1
  %12 = load ptr, ptr %11, align 8, !tbaa !9
  %13 = getelementptr inbounds i8, ptr %12, i64 4
  %14 = load i32, ptr %13, align 1, !tbaa !13
  %15 = call i32 @av_bswap32(i32 noundef %14) #7
  %16 = icmp uge i32 %15, 4
  br i1 %16, label %17, label %58

17:                                               ; preds = %9
  %18 = load ptr, ptr %3, align 8, !tbaa !4
  %19 = getelementptr inbounds nuw %struct.AVProbeData, ptr %18, i32 0, i32 1
  %20 = load ptr, ptr %19, align 8, !tbaa !9
  %21 = getelementptr inbounds i8, ptr %20, i64 8
  %22 = load i8, ptr %21, align 1, !tbaa !13
  %23 = zext i8 %22 to i32
  %24 = icmp eq i32 %23, 65
  br i1 %24, label %25, label %58

25:                                               ; preds = %17
  %26 = load ptr, ptr %3, align 8, !tbaa !4
  %27 = getelementptr inbounds nuw %struct.AVProbeData, ptr %26, i32 0, i32 1
  %28 = load ptr, ptr %27, align 8, !tbaa !9
  %29 = getelementptr inbounds i8, ptr %28, i64 9
  %30 = load i8, ptr %29, align 1, !tbaa !13
  %31 = zext i8 %30 to i32
  %32 = icmp eq i32 %31, 73
  br i1 %32, label %33, label %58

33:                                               ; preds = %25
  %34 = load ptr, ptr %3, align 8, !tbaa !4
  %35 = getelementptr inbounds nuw %struct.AVProbeData, ptr %34, i32 0, i32 1
  %36 = load ptr, ptr %35, align 8, !tbaa !9
  %37 = getelementptr inbounds i8, ptr %36, i64 10
  %38 = load i8, ptr %37, align 1, !tbaa !13
  %39 = zext i8 %38 to i32
  %40 = icmp eq i32 %39, 70
  br i1 %40, label %41, label %58

41:                                               ; preds = %33
  %42 = load ptr, ptr %3, align 8, !tbaa !4
  %43 = getelementptr inbounds nuw %struct.AVProbeData, ptr %42, i32 0, i32 1
  %44 = load ptr, ptr %43, align 8, !tbaa !9
  %45 = getelementptr inbounds i8, ptr %44, i64 11
  %46 = load i8, ptr %45, align 1, !tbaa !13
  %47 = zext i8 %46 to i32
  %48 = icmp eq i32 %47, 70
  br i1 %48, label %57, label %49

49:                                               ; preds = %41
  %50 = load ptr, ptr %3, align 8, !tbaa !4
  %51 = getelementptr inbounds nuw %struct.AVProbeData, ptr %50, i32 0, i32 1
  %52 = load ptr, ptr %51, align 8, !tbaa !9
  %53 = getelementptr inbounds i8, ptr %52, i64 11
  %54 = load i8, ptr %53, align 1, !tbaa !13
  %55 = zext i8 %54 to i32
  %56 = icmp eq i32 %55, 67
  br i1 %56, label %57, label %58

57:                                               ; preds = %49, %41
  store i32 100, ptr %2, align 4
  br label %59

58:                                               ; preds = %49, %33, %25, %17, %9, %1
  store i32 0, ptr %2, align 4
  br label %59

59:                                               ; preds = %58, %57
  %60 = load i32, ptr %2, align 4
  ret i32 %60
}