; Function Attrs: mustprogress nofree norecurse nosync nounwind willreturn memory(read, inaccessiblemem: none) uwtable
define internal range(i32 0, 101) i32 @aiff_probe(ptr noundef readonly captures(none) %0) #0 {
  %2 = getelementptr inbounds nuw i8, ptr %0, i64 8
  %3 = load ptr, ptr %2, align 8, !tbaa !4
  %4 = load i32, ptr %3, align 1, !tbaa !11
  %5 = icmp eq i32 %4, 1297239878
  br i1 %5, label %6, label %27

6:                                                ; preds = %1
  %7 = getelementptr inbounds nuw i8, ptr %3, i64 4
  %8 = load i32, ptr %7, align 1, !tbaa !11
  %9 = tail call i32 @llvm.bswap.i32(i32 %8)
  %10 = icmp ugt i32 %9, 3
  br i1 %10, label %11, label %27

11:                                               ; preds = %6
  %12 = getelementptr inbounds nuw i8, ptr %3, i64 8
  %13 = load i8, ptr %12, align 1, !tbaa !11
  %14 = icmp eq i8 %13, 65
  br i1 %14, label %15, label %27

15:                                               ; preds = %11
  %16 = getelementptr inbounds nuw i8, ptr %3, i64 9
  %17 = load i8, ptr %16, align 1, !tbaa !11
  %18 = icmp eq i8 %17, 73
  br i1 %18, label %19, label %27

19:                                               ; preds = %15
  %20 = getelementptr inbounds nuw i8, ptr %3, i64 10
  %21 = load i8, ptr %20, align 1, !tbaa !11
  %22 = icmp eq i8 %21, 70
  br i1 %22, label %23, label %27

23:                                               ; preds = %19
  %24 = getelementptr inbounds nuw i8, ptr %3, i64 11
  %25 = load i8, ptr %24, align 1, !tbaa !11
  %switch.selectcmp.case1 = icmp eq i8 %25, 70
  %switch.selectcmp.case2 = icmp eq i8 %25, 67
  %switch.selectcmp = or i1 %switch.selectcmp.case1, %switch.selectcmp.case2
  %26 = select i1 %switch.selectcmp, i32 100, i32 0
  br label %27

27:                                               ; preds = %1, %6, %11, %15, %19, %23
  %.0 = phi i32 [ %26, %23 ], [ 0, %19 ], [ 0, %15 ], [ 0, %11 ], [ 0, %6 ], [ 0, %1 ]
  ret i32 %.0
}